; Function Attrs: mustprogress uwtable
define void @_ZN8QuantLib18NumericHaganPricerC2ERKNS_6HandleINS_27SwaptionVolatilityStructureEEENS_16GFunctionFactory15YieldCurveModelERKNS1_INS_5QuoteEEEdddd(ptr noundef nonnull align 8 dereferenceable(264) %this, ptr noundef %vtt, ptr nocapture noundef nonnull readonly align 8 dereferenceable(16) %swaptionVol, i32 noundef %modelOfYieldCurve, ptr nocapture noundef nonnull readonly align 8 dereferenceable(16) %meanReversion, double noundef %lowerLimit, double noundef %upperLimit, double noundef %precision, double noundef %hardUpperLimit) unnamed_addr #7 align 2 personality ptr @__gxx_personality_v0 {
entry:
  %agg.tmp = alloca %"class.QuantLib::Handle", align 8
  %0 = load ptr, ptr %meanReversion, align 8, !tbaa !75
  store ptr %0, ptr %agg.tmp, align 8, !tbaa !75
  %pn.i.i = getelementptr inbounds nuw i8, ptr %agg.tmp, i64 8
  %pn3.i.i = getelementptr inbounds nuw i8, ptr %meanReversion, i64 8
  %1 = load ptr, ptr %pn3.i.i, align 8, !tbaa !37
  store ptr %1, ptr %pn.i.i, align 8, !tbaa !37
  %cmp.not.i.i.i = icmp eq ptr %1, null
  br i1 %cmp.not.i.i.i, label %_ZN8QuantLib6HandleINS_5QuoteEEC2ERKS2_.exit, label %if.then.i.i.i

if.then.i.i.i:                                    ; preds = %entry
  %use_count_.i.i.i.i = getelementptr inbounds nuw i8, ptr %1, i64 8
  %2 = atomicrmw add ptr %use_count_.i.i.i.i, i32 1 monotonic, align 4
  br label %_ZN8QuantLib6HandleINS_5QuoteEEC2ERKS2_.exit

_ZN8QuantLib6HandleINS_5QuoteEEC2ERKS2_.exit:     ; preds = %entry, %if.then.i.i.i
  %3 = getelementptr inbounds i8, ptr %vtt, i64 8
  invoke void @_ZN8QuantLib11HaganPricerC2ERKNS_6HandleINS_27SwaptionVolatilityStructureEEENS_16GFunctionFactory15YieldCurveModelENS1_INS_5QuoteEEE(ptr noundef nonnull align 8 dereferenceable(200) %this, ptr noundef nonnull %3, ptr noundef nonnull align 8 dereferenceable(16) %swaptionVol, i32 noundef %modelOfYieldCurve, ptr noundef nonnull %agg.tmp)
          to label %invoke.cont unwind label %lpad

invoke.cont:                                      ; preds = %_ZN8QuantLib6HandleINS_5QuoteEEC2ERKS2_.exit
  %4 = load ptr, ptr %pn.i.i, align 8, !tbaa !37
  %cmp.not.i.i.i2 = icmp eq ptr %4, null
  br i1 %cmp.not.i.i.i2, label %_ZN8QuantLib6HandleINS_5QuoteEED2Ev.exit, label %if.then.i.i.i3

if.then.i.i.i3:                                   ; preds = %invoke.cont
  %use_count_.i.i.i.i4 = getelementptr inbounds nuw i8, ptr %4, i64 8
  %5 = atomicrmw sub ptr %use_count_.i.i.i.i4, i32 1 acq_rel, align 4
  %cmp.i.i.i.i = icmp eq i32 %5, 1
  br i1 %cmp.i.i.i.i, label %if.then.i.i.i.i, label %_ZN8QuantLib6HandleINS_5QuoteEED2Ev.exit

if.then.i.i.i.i:                                  ; preds = %if.then.i.i.i3
  %vtable.i.i.i.i = load ptr, ptr %4, align 8, !tbaa !35
  %vfn.i.i.i.i = getelementptr inbounds i8, ptr %vtable.i.i.i.i, i64 16
  %6 = load ptr, ptr %vfn.i.i.i.i, align 8
  invoke void %6(ptr noundef nonnull align 8 dereferenceable(16) %4)
          to label %.noexc.i.i.i unwind label %terminate.lpad.i.i.i

.noexc.i.i.i:                                     ; preds = %if.then.i.i.i.i
  %weak_count_.i.i.i.i.i = getelementptr inbounds nuw i8, ptr %4, i64 12
  %7 = atomicrmw sub ptr %weak_count_.i.i.i.i.i, i32 1 acq_rel, align 4
  %cmp.i.i.i.i.i = icmp eq i32 %7, 1
  br i1 %cmp.i.i.i.i.i, label %if.then.i.i.i.i.i, label %_ZN8QuantLib6HandleINS_5QuoteEED2Ev.exit

if.then.i.i.i.i.i:                                ; preds = %.noexc.i.i.i
  %vtable.i.i.i.i.i = load ptr, ptr %4, align 8, !tbaa !35
  %vfn.i.i.i.i.i = getelementptr inbounds i8, ptr %vtable.i.i.i.i.i, i64 24
  %8 = load ptr, ptr %vfn.i.i.i.i.i, align 8
  invoke void %8(ptr noundef nonnull align 8 dereferenceable(16) %4)
          to label %_ZN8QuantLib6HandleINS_5QuoteEED2Ev.exit unwind label %terminate.lpad.i.i.i

terminate.lpad.i.i.i:                             ; preds = %if.then.i.i.i.i.i, %if.then.i.i.i.i
  %9 = landingpad { ptr, i32 }
          catch ptr null
  %10 = extractvalue { ptr, i32 } %9, 0
  tail call void @__clang_call_terminate(ptr %10) #36
  unreachable

_ZN8QuantLib6HandleINS_5QuoteEED2Ev.exit:         ; preds = %invoke.cont, %if.then.i.i.i3, %.noexc.i.i.i, %if.then.i.i.i.i.i
  %11 = load ptr, ptr %vtt, align 8
  store ptr %11, ptr %this, align 8, !tbaa !35
  %12 = getelementptr inbounds i8, ptr %vtt, i64 80
  %13 = load ptr, ptr %12, align 8
  %vbase.offset.ptr = getelementptr i8, ptr %11, i64 -24
  %vbase.offset = load i64, ptr %vbase.offset.ptr, align 8
  %add.ptr = getelementptr inbounds i8, ptr %this, i64 %vbase.offset
  store ptr %13, ptr %add.ptr, align 8, !tbaa !35
  %14 = getelementptr inbounds i8, ptr %vtt, i64 88
  %15 = load ptr, ptr %14, align 8
  %vtable3 = load ptr, ptr %this, align 8, !tbaa !35
  %vbase.offset.ptr4 = getelementptr i8, ptr %vtable3, i64 -32
  %vbase.offset5 = load i64, ptr %vbase.offset.ptr4, align 8
  %add.ptr6 = getelementptr inbounds i8, ptr %this, i64 %vbase.offset5
  store ptr %15, ptr %add.ptr6, align 8, !tbaa !35
  %add.ptr7 = getelementptr inbounds i8, ptr %this, i64 24
  store ptr getelementptr inbounds inrange(-16, 32) (i8, ptr @_ZTVN8QuantLib18NumericHaganPricerE, i64 152), ptr %add.ptr7, align 8, !tbaa !35
  %lowerLimit_ = getelementptr inbounds nuw i8, ptr %this, i64 200
  store double %lowerLimit, ptr %lowerLimit_, align 8, !tbaa !151
  %upperLimit_ = getelementptr inbounds nuw i8, ptr %this, i64 216
  store double %upperLimit, ptr %upperLimit_, align 8, !tbaa !153
  %requiredStdDeviations_ = getelementptr inbounds nuw i8, ptr %this, i64 232
  store double 8.000000e+00, ptr %requiredStdDeviations_, align 8, !tbaa !154
  %precision_ = getelementptr inbounds nuw i8, ptr %this, i64 240
  store double %precision, ptr %precision_, align 8, !tbaa !155
  %refiningIntegrationTolerance_ = getelementptr inbounds nuw i8, ptr %this, i64 248
  store double 1.000000e-04, ptr %refiningIntegrationTolerance_, align 8, !tbaa !156
  %hardUpperLimit_ = getelementptr inbounds nuw i8, ptr %this, i64 256
  store double %hardUpperLimit, ptr %hardUpperLimit_, align 8, !tbaa !157
  ret void

lpad:                                             ; preds = %_ZN8QuantLib6HandleINS_5QuoteEEC2ERKS2_.exit
  %16 = landingpad { ptr, i32 }
          cleanup
  call void @_ZN8QuantLib6HandleINS_5QuoteEED2Ev(ptr noundef nonnull align 8 dereferenceable(16) %agg.tmp) #35
  resume { ptr, i32 } %16
}